target datalayout = "e-m:e-p270:32:32-p271:32:32-p272:64:64-i64:64-i128:128-f80:128-n8:16:32:64-S128"
target triple = "x86_64-pc-linux-gnu"

%struct._funnel_ops_id_t = type { ptr }

@mainApp = external global ptr, align 8

; Function Attrs: mustprogress uwtable
define void @_ZN16FunnelStatistics16redissectPacketsEv(ptr noundef nonnull align 8 dereferenceable(88) %0) #0 align 2 {
  %2 = alloca ptr, align 8
  store ptr %0, ptr %2, align 8
  %3 = load ptr, ptr @mainApp, align 8
  call void @_ZN15MainApplication13emitAppSignalENS_9AppSignalE(ptr noundef nonnull align 8 dereferenceable(216) %3, i32 noundef 8)
  ret void
}

; Function Attrs: mustprogress uwtable
define internal void @_ZL35funnel_statistics_redissect_packetsP16_funnel_ops_id_t(ptr noundef %0) #0 {
  %2 = alloca ptr, align 8
  store ptr %0, ptr %2, align 8
  %3 = load ptr, ptr %2, align 8
  %4 = icmp ne ptr %3, null
  br i1 %4, label %5, label %10

5:                                                ; preds = %1
  %6 = load ptr, ptr %2, align 8
  %7 = getelementptr inbounds %struct._funnel_ops_id_t, ptr %6, i32 0, i32 0
  %8 = load ptr, ptr %7, align 8
  %9 = icmp ne ptr %8, null
  br i1 %9, label %11, label %10

10:                                               ; preds = %5, %1
  br label %15

11:                                               ; preds = %5
  %12 = load ptr, ptr %2, align 8
  %13 = getelementptr inbounds %struct._funnel_ops_id_t, ptr %12, i32 0, i32 0
  %14 = load ptr, ptr %13, align 8
  call void @_ZN16FunnelStatistics16redissectPacketsEv(ptr noundef nonnull align 8 dereferenceable(88) %14)
  br label %15

15:                                               ; preds = %11, %10
  ret void
}