; Function Attrs: mustprogress uwtable
define internal void @_ZL35funnel_statistics_redissect_packetsP16_funnel_ops_id_t(ptr noundef readonly %0) #0 {
  %.not = icmp eq ptr %0, null
  br i1 %.not, label %6, label %2

2:                                                ; preds = %1
  %3 = load ptr, ptr %0, align 8
  %.not4 = icmp eq ptr %3, null
  br i1 %.not4, label %6, label %4

4:                                                ; preds = %2
  %5 = load ptr, ptr @mainApp, align 8
  tail call void @_ZN15MainApplication13emitAppSignalENS_9AppSignalE(ptr noundef nonnull align 8 dereferenceable(216) %5, i32 noundef 8)
  br label %6

6:                                                ; preds = %1, %2, %4
  ret void
}